target datalayout = "e-m:e-p270:32:32-p271:32:32-p272:64:64-i64:64-i128:128-f80:128-n8:16:32:64-S128"
target triple = "x86_64-pc-linux-gnu"

%struct.s_xdfenv = type { %struct.s_xdfile, %struct.s_xdfile }
%struct.s_xdfile = type { %struct.s_chastore, i64, i32, ptr, i64, i64, ptr, ptr, ptr, i64, ptr }
%struct.s_chastore = type { ptr, ptr, i64, i64, ptr, ptr, i64 }

; Function Attrs: nounwind uwtable
define dso_local i32 @xdl_do_histogram_diff(ptr noundef %0, ptr noundef %1) #0 {
  %3 = alloca ptr, align 8
  %4 = alloca ptr, align 8
  store ptr %0, ptr %3, align 8, !tbaa !4
  store ptr %1, ptr %4, align 8, !tbaa !9
  %5 = load ptr, ptr %3, align 8, !tbaa !4
  %6 = load ptr, ptr %4, align 8, !tbaa !9
  %7 = load ptr, ptr %4, align 8, !tbaa !9
  %8 = getelementptr inbounds nuw %struct.s_xdfenv, ptr %7, i32 0, i32 0
  %9 = getelementptr inbounds nuw %struct.s_xdfile, ptr %8, i32 0, i32 4
  %10 = load i64, ptr %9, align 8, !tbaa !11
  %11 = add nsw i64 %10, 1
  %12 = trunc i64 %11 to i32
  %13 = load ptr, ptr %4, align 8, !tbaa !9
  %14 = getelementptr inbounds nuw %struct.s_xdfenv, ptr %13, i32 0, i32 0
  %15 = getelementptr inbounds nuw %struct.s_xdfile, ptr %14, i32 0, i32 5
  %16 = load i64, ptr %15, align 8, !tbaa !21
  %17 = load ptr, ptr %4, align 8, !tbaa !9
  %18 = getelementptr inbounds nuw %struct.s_xdfenv, ptr %17, i32 0, i32 0
  %19 = getelementptr inbounds nuw %struct.s_xdfile, ptr %18, i32 0, i32 4
  %20 = load i64, ptr %19, align 8, !tbaa !11
  %21 = sub nsw i64 %16, %20
  %22 = add nsw i64 %21, 1
  %23 = trunc i64 %22 to i32
  %24 = load ptr, ptr %4, align 8, !tbaa !9
  %25 = getelementptr inbounds nuw %struct.s_xdfenv, ptr %24, i32 0, i32 1
  %26 = getelementptr inbounds nuw %struct.s_xdfile, ptr %25, i32 0, i32 4
  %27 = load i64, ptr %26, align 8, !tbaa !22
  %28 = add nsw i64 %27, 1
  %29 = trunc i64 %28 to i32
  %30 = load ptr, ptr %4, align 8, !tbaa !9
  %31 = getelementptr inbounds nuw %struct.s_xdfenv, ptr %30, i32 0, i32 1
  %32 = getelementptr inbounds nuw %struct.s_xdfile, ptr %31, i32 0, i32 5
  %33 = load i64, ptr %32, align 8, !tbaa !23
  %34 = load ptr, ptr %4, align 8, !tbaa !9
  %35 = getelementptr inbounds nuw %struct.s_xdfenv, ptr %34, i32 0, i32 1
  %36 = getelementptr inbounds nuw %struct.s_xdfile, ptr %35, i32 0, i32 4
  %37 = load i64, ptr %36, align 8, !tbaa !22
  %38 = sub nsw i64 %33, %37
  %39 = add nsw i64 %38, 1
  %40 = trunc i64 %39 to i32
  %41 = call i32 @histogram_diff(ptr noundef %5, ptr noundef %6, i32 noundef %12, i32 noundef %23, i32 noundef %29, i32 noundef %40)
  ret i32 %41
}