; Function Attrs: nounwind uwtable
define dso_local i32 @xdl_do_histogram_diff(ptr noundef %0, ptr noundef %1) local_unnamed_addr #0 {
  %3 = getelementptr inbounds nuw i8, ptr %1, i64 80
  %4 = load i64, ptr %3, align 8, !tbaa !4
  %5 = trunc i64 %4 to i32
  %6 = add i32 %5, 1
  %7 = getelementptr inbounds nuw i8, ptr %1, i64 88
  %8 = load i64, ptr %7, align 8, !tbaa !17
  %9 = sub nsw i64 %8, %4
  %10 = trunc i64 %9 to i32
  %11 = add i32 %10, 1
  %12 = getelementptr inbounds nuw i8, ptr %1, i64 216
  %13 = load i64, ptr %12, align 8, !tbaa !18
  %14 = trunc i64 %13 to i32
  %15 = add i32 %14, 1
  %16 = getelementptr inbounds nuw i8, ptr %1, i64 224
  %17 = load i64, ptr %16, align 8, !tbaa !19
  %18 = sub nsw i64 %17, %13
  %19 = trunc i64 %18 to i32
  %20 = add i32 %19, 1
  %21 = tail call fastcc i32 @histogram_diff(ptr noundef %0, ptr noundef %1, i32 noundef %6, i32 noundef %11, i32 noundef %15, i32 noundef %20)
  ret i32 %21
}